(dp0
S'boxCenter'
p1
cnumpy.core.multiarray
_reconstruct
p2
(cnumpy
ndarray
p3
(I0
tp4
S'b'
p5
tp6
Rp7
(I1
(I3
tp8
cnumpy
dtype
p9
(S'f8'
p10
I0
I1
tp11
Rp12
(I3
S'<'
p13
NNNI-1
I-1
I0
tp14
bI00
S'\xa4p=\n\xd7#6@\xaeG\xe1z\x14\xaeO@\\\x8f\xc2\xf5(\xfcA@'
p15
tp16
bsS'covalentBond'
p17
NsS'mapGradients'
p18
I01
sS'boxMode'
p19
(lp20
S'user'
p21
aS'22.14'
p22
aS'63.36'
p23
aS'35.97'
p24
aS'25'
p25
aS'25'
p26
aS'25'
p27
asS'boxLengths'
p28
g2
(g3
(I0
tp29
g5
tp30
Rp31
(I1
(I3
tp32
g12
I00
S'\x00\x00\x00\x00\x00\x009@\x00\x00\x00\x00\x00\x009@\x00\x00\x00\x00\x00\x009@'
p33
tp34
bsS'pocketmode'
p35
(lp36
S'all'
p37
asS'platform'
p38
S'Linux-6.17.0-14-generic-x86_64-with-debian-trixie-sid'
p39
sS'inputLigand'
p40
S'curcumin.pdbqt'
p41
sS'inputReceptor'
p42
S'receptor.pdbqt'
p43
sS'flexResStr'
p44
NsS'fillPointsFile'
p45
S'/media/arga/DATA1000/LADOCK/ligPocket/translationPoints.npy'
p46
sS'node'
p47
S'arga'
p48
sS'spacing'
p49
F0.375
sS'boxPadding'
p50
F0.0
sS'AGFRVERSION'
p51
S'1.2rc1'
p52
sS'date'
p53
S'Fri Mar 13 14:12:00 2026'
p54
sS'covalentLigandFile'
p55
S''
p56
sS'AutoSiteVersion'
p57
S'1.0'
p58
sS'covalentRes'
p59
NsS'gradCutOff'
p60
I-1
sS'wMapEntropy'
p61
F-0.2
sS'nbFillPoints'
p62
I697
sS'mapTypes'
p63
(lp64
S'Z'
p65
aS'F'
p66
aS'Mn'
p67
aS'OS'
p68
aS'Ca'
p69
aS'Fe'
p70
aS'J'
p71
aS'N'
p72
aS'Br'
p73
aS'NA'
p74
aS'SA'
p75
aS'Zn'
p76
aS'I'
p77
aS'Q'
p78
aS'e'
p79
aS'H'
p80
aS'd'
p81
aS'HS'
p82
aS'A'
p83
aS'HD'
p84
aS'OA'
p85
aS'GA'
p86
aS'C'
p87
aS'NS'
p88
aS'S'
p89
aS'P'
p90
aS'G'
p91
aS'Cl'
p92
aS'Mg'
p93
aS'W'
p94
asS'boxSize'
p95
(lp96
I68
aI68
aI68
asS'flexRecFile'
p97
g56
sS'covalentLigandAtomIndices'
p98
NsS'wMapWeight'
p99
F0.6
s.